(dp0
S'upnp_enabled'
p1
I00
sS'live_buffer_time'
p2
I35
sS'total_max_download_rate'
p3
I0
sS'disk_cache_limit'
p4
L1073741824L
sS'ad_storage_limit'
p5
L536870912L
sS'max_peers'
p6
I50
sS'player_buffer_time'
p7
I35
sS'total_max_upload_rate'
p8
I0
s.